; Function Attrs: mustprogress uwtable
define hidden void @_ZN7datalog17execution_context5resetEv(ptr noundef nonnull align 8 dereferenceable(108) %0) local_unnamed_addr #3 align 2 {
  %2 = getelementptr inbounds nuw i8, ptr %0, i64 8
  %3 = load ptr, ptr %2, align 8, !tbaa !8
  %4 = icmp eq ptr %3, null
  br i1 %4, label %_ZN6vectorIPN7datalog13relation_baseELb1EjE5resetEv.exit, label %_ZN6vectorIPN7datalog13relation_baseELb1EjE3endEv.exit

_ZN6vectorIPN7datalog13relation_baseELb1EjE3endEv.exit: ; preds = %1
  %5 = getelementptr inbounds i8, ptr %3, i64 -4
  %6 = load i32, ptr %5, align 4, !tbaa !33
  %7 = zext i32 %6 to i64
  %8 = getelementptr inbounds nuw ptr, ptr %3, i64 %7
  %.not11 = icmp eq i32 %6, 0
  br i1 %.not11, label %._crit_edge.thread16, label %.lr.ph

._crit_edge:                                      ; preds = %22
  %.pre = load ptr, ptr %2, align 8, !tbaa !8
  %.not.i = icmp eq ptr %.pre, null
  br i1 %.not.i, label %_ZN6vectorIPN7datalog13relation_baseELb1EjE5resetEv.exit, label %._crit_edge.thread16

._crit_edge.thread16:                             ; preds = %_ZN6vectorIPN7datalog13relation_baseELb1EjE3endEv.exit, %._crit_edge
  %9 = phi ptr [ %.pre, %._crit_edge ], [ %3, %_ZN6vectorIPN7datalog13relation_baseELb1EjE3endEv.exit ]
  %10 = getelementptr inbounds i8, ptr %9, i64 -4
  store i32 0, ptr %10, align 4, !tbaa !33
  br label %_ZN6vectorIPN7datalog13relation_baseELb1EjE5resetEv.exit

_ZN6vectorIPN7datalog13relation_baseELb1EjE5resetEv.exit: ; preds = %1, %._crit_edge, %._crit_edge.thread16
  %11 = getelementptr inbounds nuw i8, ptr %0, i64 16
  tail call void @_ZN14core_hashtableI17default_map_entryIjNSt7__cxx1112basic_stringIcSt11char_traitsIcESaIcEEEEN9table2mapIS7_6u_hash4u_eqE15entry_hash_procENSB_13entry_eq_procEE5resetEv(ptr noundef nonnull align 8 dereferenceable(24) %11)
  %12 = getelementptr inbounds nuw i8, ptr %0, i64 40
  %13 = load ptr, ptr %12, align 8, !tbaa !34
  %14 = icmp eq ptr %13, null
  br i1 %14, label %_ZN7datalog17execution_context15reset_timelimitEv.exit, label %15

15:                                               ; preds = %_ZN6vectorIPN7datalog13relation_baseELb1EjE5resetEv.exit
  tail call void @_ZN6memory10deallocateEPv(ptr noundef nonnull %13)
  br label %_ZN7datalog17execution_context15reset_timelimitEv.exit

_ZN7datalog17execution_context15reset_timelimitEv.exit: ; preds = %_ZN6vectorIPN7datalog13relation_baseELb1EjE5resetEv.exit, %15
  store ptr null, ptr %12, align 8, !tbaa !34
  %16 = getelementptr inbounds nuw i8, ptr %0, i64 48
  store i32 0, ptr %16, align 8, !tbaa !45
  ret void

.lr.ph:                                           ; preds = %_ZN6vectorIPN7datalog13relation_baseELb1EjE3endEv.exit, %22
  %.012 = phi ptr [ %23, %22 ], [ %3, %_ZN6vectorIPN7datalog13relation_baseELb1EjE3endEv.exit ]
  %17 = load ptr, ptr %.012, align 8, !tbaa !41
  %.not10 = icmp eq ptr %17, null
  br i1 %.not10, label %22, label %18

18:                                               ; preds = %.lr.ph
  %19 = load ptr, ptr %17, align 8, !tbaa !43
  %20 = getelementptr inbounds nuw i8, ptr %19, i64 16
  %21 = load ptr, ptr %20, align 8
  tail call void %21(ptr noundef nonnull align 8 dereferenceable(28) %17)
  br label %22

22:                                               ; preds = %18, %.lr.ph
  %23 = getelementptr inbounds nuw i8, ptr %.012, i64 8
  %.not = icmp eq ptr %23, %8
  br i1 %.not, label %._crit_edge, label %.lr.ph
}